; ModuleID = '12/739.c'
source_filename = "12/739.c"
target datalayout = "e-m:e-p270:32:32-p271:32:32-p272:64:64-i64:64-f80:128-n8:16:32:64-S128"
target triple = "x86_64-pc-linux-gnu"

@.str = private unnamed_addr constant [3 x i8] c"%d\00", align 1
@.str.1 = private unnamed_addr constant [4 x i8] c"%d\0A\00", align 1

; Function Attrs: noinline nounwind uwtable
define dso_local i32 @main() #0 {
  %1 = alloca i32, align 4
  %2 = alloca [20 x i32], align 16
  %3 = alloca i32, align 4
  %4 = alloca i32, align 4
  %5 = alloca i32, align 4
  %6 = alloca i32, align 4
  store i32 0, i32* %1, align 4
  store i32 0, i32* %3, align 4
  br label %7

7:                                                ; preds = %66, %0
  %8 = load i32, i32* %3, align 4
  %9 = add nsw i32 %8, 1
  store i32 %9, i32* %3, align 4
  %10 = sext i32 %9 to i64
  %11 = getelementptr inbounds [20 x i32], [20 x i32]* %2, i64 0, i64 %10
  %12 = call i32 (i8*, ...) @__isoc99_scanf(i8* getelementptr inbounds ([3 x i8], [3 x i8]* @.str, i64 0, i64 0), i32* %11)
  %13 = icmp ne i32 %12, -1
  br i1 %13, label %14, label %69

14:                                               ; preds = %7
  %15 = getelementptr inbounds [20 x i32], [20 x i32]* %2, i64 0, i64 1
  %16 = load i32, i32* %15, align 4
  %17 = icmp eq i32 %16, -1
  br i1 %17, label %18, label %19

18:                                               ; preds = %14
  br label %69

19:                                               ; preds = %14
  br label %20

20:                                               ; preds = %26, %19
  %21 = load i32, i32* %3, align 4
  %22 = add nsw i32 %21, 1
  store i32 %22, i32* %3, align 4
  %23 = sext i32 %22 to i64
  %24 = getelementptr inbounds [20 x i32], [20 x i32]* %2, i64 0, i64 %23
  %25 = call i32 (i8*, ...) @__isoc99_scanf(i8* getelementptr inbounds ([3 x i8], [3 x i8]* @.str, i64 0, i64 0), i32* %24)
  br label %26

26:                                               ; preds = %20
  %27 = load i32, i32* %3, align 4
  %28 = sext i32 %27 to i64
  %29 = getelementptr inbounds [20 x i32], [20 x i32]* %2, i64 0, i64 %28
  %30 = load i32, i32* %29, align 4
  %31 = icmp ne i32 %30, 0
  br i1 %31, label %20, label %32

32:                                               ; preds = %26
  %33 = load i32, i32* %3, align 4
  %34 = add nsw i32 %33, -1
  store i32 %34, i32* %3, align 4
  store i32 0, i32* %4, align 4
  store i32 1, i32* %5, align 4
  br label %35

35:                                               ; preds = %63, %32
  %36 = load i32, i32* %5, align 4
  %37 = load i32, i32* %3, align 4
  %38 = icmp sle i32 %36, %37
  br i1 %38, label %39, label %66

39:                                               ; preds = %35
  store i32 1, i32* %6, align 4
  br label %40

40:                                               ; preds = %59, %39
  %41 = load i32, i32* %6, align 4
  %42 = load i32, i32* %3, align 4
  %43 = icmp sle i32 %41, %42
  br i1 %43, label %44, label %62

44:                                               ; preds = %40
  %45 = load i32, i32* %5, align 4
  %46 = sext i32 %45 to i64
  %47 = getelementptr inbounds [20 x i32], [20 x i32]* %2, i64 0, i64 %46
  %48 = load i32, i32* %47, align 4
  %49 = mul nsw i32 %48, 2
  %50 = load i32, i32* %6, align 4
  %51 = sext i32 %50 to i64
  %52 = getelementptr inbounds [20 x i32], [20 x i32]* %2, i64 0, i64 %51
  %53 = load i32, i32* %52, align 4
  %54 = icmp eq i32 %49, %53
  br i1 %54, label %55, label %58

55:                                               ; preds = %44
  %56 = load i32, i32* %4, align 4
  %57 = add nsw i32 %56, 1
  store i32 %57, i32* %4, align 4
  br label %58

58:                                               ; preds = %55, %44
  br label %59

59:                                               ; preds = %58
  %60 = load i32, i32* %6, align 4
  %61 = add nsw i32 %60, 1
  store i32 %61, i32* %6, align 4
  br label %40

62:                                               ; preds = %40
  br label %63

63:                                               ; preds = %62
  %64 = load i32, i32* %5, align 4
  %65 = add nsw i32 %64, 1
  store i32 %65, i32* %5, align 4
  br label %35

66:                                               ; preds = %35
  %67 = load i32, i32* %4, align 4
  %68 = call i32 (i8*, ...) @printf(i8* getelementptr inbounds ([4 x i8], [4 x i8]* @.str.1, i64 0, i64 0), i32 %67)
  store i32 0, i32* %3, align 4
  br label %7

69:                                               ; preds = %18, %7
  ret i32 0
}

declare dso_local i32 @__isoc99_scanf(i8*, ...) #1

declare dso_local i32 @printf(i8*, ...) #1


!llvm.module.flags = !{!0}
!llvm.ident = !{!1}

!0 = !{i32 1, !"wchar_size", i32 4}
!1 = !{!"clang version 10.0.0-4ubuntu1 "}
